; Function Attrs: nounwind uwtable
define hidden range(i32 0, 2) i32 @BN_mod_sqr(ptr noundef %0, ptr noundef %1, ptr noundef %2, ptr noundef %3) local_unnamed_addr #0 {
  %5 = tail call i32 @BN_sqr(ptr noundef %0, ptr noundef %1, ptr noundef %3) #6
  %.not = icmp eq i32 %5, 0
  br i1 %.not, label %8, label %6

6:                                                ; preds = %4
  %7 = tail call i32 @BN_div(ptr noundef null, ptr noundef %0, ptr noundef %0, ptr noundef %2, ptr noundef %3)
  br label %8

8:                                                ; preds = %4, %6
  %.0 = phi i32 [ %7, %6 ], [ 0, %4 ]
  ret i32 %.0
}